target datalayout = "e-m:e-p270:32:32-p271:32:32-p272:64:64-i64:64-i128:128-f80:128-n8:16:32:64-S128"
target triple = "x86_64-pc-linux-gnu"

%struct._grid = type { ptr, ptr, ptr, i32, ptr, ptr }

@stderr = external global ptr, align 8
@.str.2 = private unnamed_addr constant [58 x i8] c"integer overflow when trying to allocate %zu * %zu bytes\0A\00", align 1
@.str.3 = private unnamed_addr constant [49 x i8] c"out of memory when trying to allocate %zu bytes\0A\00", align 1

; Function Attrs: inlinehint nounwind uwtable
define internal ptr @gv_calloc(i64 noundef %0, i64 noundef %1) #5 {
  %3 = alloca i64, align 8
  %4 = alloca i64, align 8
  %5 = alloca ptr, align 8
  store i64 %0, ptr %3, align 8, !tbaa !25
  store i64 %1, ptr %4, align 8, !tbaa !25
  %6 = load i64, ptr %3, align 8, !tbaa !25
  %7 = icmp ugt i64 %6, 0
  br i1 %7, label %8, label %18

8:                                                ; preds = %2
  %9 = load i64, ptr %3, align 8, !tbaa !25
  %10 = udiv i64 -1, %9
  %11 = load i64, ptr %4, align 8, !tbaa !25
  %12 = icmp ult i64 %10, %11
  br i1 %12, label %13, label %18

13:                                               ; preds = %8
  %14 = load ptr, ptr @stderr, align 8, !tbaa !27
  %15 = load i64, ptr %3, align 8, !tbaa !25
  %16 = load i64, ptr %4, align 8, !tbaa !25
  %17 = call i32 (ptr, ptr, ...) @fprintf(ptr noundef %14, ptr noundef @.str.2, i64 noundef %15, i64 noundef %16) #9
  call void @graphviz_exit(i32 noundef 1) #10
  unreachable

18:                                               ; preds = %8, %2
  call void @llvm.lifetime.start.p0(i64 8, ptr %5) #9
  %19 = load i64, ptr %3, align 8, !tbaa !25
  %20 = load i64, ptr %4, align 8, !tbaa !25
  %21 = call noalias ptr @calloc(i64 noundef %19, i64 noundef %20) #11
  store ptr %21, ptr %5, align 8, !tbaa !10
  %22 = load i64, ptr %3, align 8, !tbaa !25
  %23 = icmp ugt i64 %22, 0
  br i1 %23, label %24, label %36

24:                                               ; preds = %18
  %25 = load i64, ptr %4, align 8, !tbaa !25
  %26 = icmp ugt i64 %25, 0
  br i1 %26, label %27, label %36

27:                                               ; preds = %24
  %28 = load ptr, ptr %5, align 8, !tbaa !10
  %29 = icmp eq ptr %28, null
  br i1 %29, label %30, label %36

30:                                               ; preds = %27
  %31 = load ptr, ptr @stderr, align 8, !tbaa !27
  %32 = load i64, ptr %3, align 8, !tbaa !25
  %33 = load i64, ptr %4, align 8, !tbaa !25
  %34 = mul i64 %32, %33
  %35 = call i32 (ptr, ptr, ...) @fprintf(ptr noundef %31, ptr noundef @.str.3, i64 noundef %34) #9
  call void @graphviz_exit(i32 noundef 1) #10
  unreachable

36:                                               ; preds = %27, %24, %18
  %37 = load ptr, ptr %5, align 8, !tbaa !10
  call void @llvm.lifetime.end.p0(i64 8, ptr %5) #9
  ret ptr %37
}

; Function Attrs: nounwind uwtable
define void @adjustGrid(ptr noundef %0, i32 noundef %1) #0 {
  %3 = alloca ptr, align 8
  %4 = alloca i32, align 4
  %5 = alloca i32, align 4
  store ptr %0, ptr %3, align 8, !tbaa !7
  store i32 %1, ptr %4, align 4, !tbaa !3
  call void @llvm.lifetime.start.p0(i64 4, ptr %5) #9
  %6 = load i32, ptr %4, align 4, !tbaa !3
  %7 = load ptr, ptr %3, align 8, !tbaa !7
  %8 = getelementptr inbounds nuw %struct._grid, ptr %7, i32 0, i32 3
  %9 = load i32, ptr %8, align 8, !tbaa !23
  %10 = icmp sgt i32 %6, %9
  br i1 %10, label %11, label %44

11:                                               ; preds = %2
  %12 = load i32, ptr %4, align 4, !tbaa !3
  %13 = load ptr, ptr %3, align 8, !tbaa !7
  %14 = getelementptr inbounds nuw %struct._grid, ptr %13, i32 0, i32 3
  %15 = load i32, ptr %14, align 8, !tbaa !23
  %16 = mul nsw i32 2, %15
  %17 = icmp sgt i32 %12, %16
  br i1 %17, label %18, label %20

18:                                               ; preds = %11
  %19 = load i32, ptr %4, align 4, !tbaa !3
  br label %25

20:                                               ; preds = %11
  %21 = load ptr, ptr %3, align 8, !tbaa !7
  %22 = getelementptr inbounds nuw %struct._grid, ptr %21, i32 0, i32 3
  %23 = load i32, ptr %22, align 8, !tbaa !23
  %24 = mul nsw i32 2, %23
  br label %25

25:                                               ; preds = %20, %18
  %26 = phi i32 [ %19, %18 ], [ %24, %20 ]
  store i32 %26, ptr %5, align 4, !tbaa !3
  %27 = load ptr, ptr %3, align 8, !tbaa !7
  %28 = getelementptr inbounds nuw %struct._grid, ptr %27, i32 0, i32 4
  %29 = load ptr, ptr %28, align 8, !tbaa !24
  %30 = icmp ne ptr %29, null
  br i1 %30, label %31, label %35

31:                                               ; preds = %25
  %32 = load ptr, ptr %3, align 8, !tbaa !7
  %33 = getelementptr inbounds nuw %struct._grid, ptr %32, i32 0, i32 4
  %34 = load ptr, ptr %33, align 8, !tbaa !24
  call void @free(ptr noundef %34) #9
  br label %35

35:                                               ; preds = %31, %25
  %36 = load i32, ptr %5, align 4, !tbaa !3
  %37 = sext i32 %36 to i64
  %38 = call ptr @gv_calloc(i64 noundef %37, i64 noundef 16)
  %39 = load ptr, ptr %3, align 8, !tbaa !7
  %40 = getelementptr inbounds nuw %struct._grid, ptr %39, i32 0, i32 4
  store ptr %38, ptr %40, align 8, !tbaa !24
  %41 = load i32, ptr %5, align 4, !tbaa !3
  %42 = load ptr, ptr %3, align 8, !tbaa !7
  %43 = getelementptr inbounds nuw %struct._grid, ptr %42, i32 0, i32 3
  store i32 %41, ptr %43, align 8, !tbaa !23
  br label %44

44:                                               ; preds = %35, %2
  call void @llvm.lifetime.end.p0(i64 4, ptr %5) #9
  ret void
}