; Function Attrs: nounwind uwtable
define void @adjustGrid(ptr noundef captures(none) %0, i32 noundef %1) local_unnamed_addr #0 {
  %3 = getelementptr inbounds nuw i8, ptr %0, i64 24
  %4 = load i32, ptr %3, align 8, !tbaa !20
  %5 = icmp sgt i32 %1, %4
  br i1 %5, label %6, label %26

6:                                                ; preds = %2
  %7 = shl nsw i32 %4, 1
  %. = tail call i32 @llvm.smax.i32(i32 %1, i32 %7)
  %8 = getelementptr inbounds nuw i8, ptr %0, i64 32
  %9 = load ptr, ptr %8, align 8, !tbaa !21
  %.not = icmp eq ptr %9, null
  br i1 %.not, label %11, label %10

10:                                               ; preds = %6
  tail call void @free(ptr noundef nonnull %9) #13
  br label %11

11:                                               ; preds = %10, %6
  %12 = sext i32 %. to i64
  %.not.i = icmp eq i32 %., 0
  br i1 %.not.i, label %.thread.i, label %14

.thread.i:                                        ; preds = %11
  %13 = tail call noalias ptr @calloc(i64 noundef 0, i64 noundef 16) #14
  br label %gv_calloc.exit

14:                                               ; preds = %11
  %mul.ov.i = icmp slt i32 %., 0
  br i1 %mul.ov.i, label %15, label %18

15:                                               ; preds = %14
  %16 = load ptr, ptr @stderr, align 8, !tbaa !14
  %17 = tail call i32 (ptr, ptr, ...) @fprintf(ptr noundef %16, ptr noundef nonnull @.str.2, i64 noundef range(i64 -2147483648, 2147483648) %12, i64 noundef 16) #15
  tail call fastcc void @graphviz_exit() #16
  unreachable

18:                                               ; preds = %14
  %19 = tail call noalias ptr @calloc(i64 noundef range(i64 -2147483648, 2147483648) %12, i64 noundef 16) #14
  %20 = icmp eq ptr %19, null
  br i1 %20, label %21, label %gv_calloc.exit

21:                                               ; preds = %18
  %22 = load ptr, ptr @stderr, align 8, !tbaa !14
  %23 = shl nuw nsw i64 %12, 4
  %24 = tail call i32 (ptr, ptr, ...) @fprintf(ptr noundef %22, ptr noundef nonnull @.str.3, i64 noundef %23) #15
  tail call fastcc void @graphviz_exit() #16
  unreachable

gv_calloc.exit:                                   ; preds = %.thread.i, %18
  %25 = phi ptr [ %13, %.thread.i ], [ %19, %18 ]
  store ptr %25, ptr %8, align 8, !tbaa !21
  store i32 %., ptr %3, align 8, !tbaa !20
  br label %26

26:                                               ; preds = %gv_calloc.exit, %2
  ret void
}